; Function Attrs: mustprogress uwtable
define void @utrans_unregisterID_77(ptr noundef %0, i32 noundef %1) local_unnamed_addr #4 personality ptr @__gxx_personality_v0 {
  %3 = alloca %"class.icu_77::UnicodeString", align 8
  %4 = alloca %"class.icu_77::ConstChar16Ptr", align 8
  call void @llvm.lifetime.start.p0(i64 64, ptr nonnull %3) #10
  %.lobit = lshr i32 %1, 31
  %5 = trunc nuw nsw i32 %.lobit to i8
  store ptr %0, ptr %4, align 8, !tbaa !25
  invoke void @_ZN6icu_7713UnicodeStringC1EaNS_14ConstChar16PtrEi(ptr noundef nonnull align 8 dereferenceable(64) %3, i8 noundef signext %5, ptr noundef nonnull %4, i32 noundef %1)
          to label %6 unwind label %9

6:                                                ; preds = %2
  %7 = load ptr, ptr %4, align 8, !tbaa !25
  call void asm sideeffect "", "rm,~{memory},~{dirflag},~{fpsr},~{flags}"(ptr %7) #10, !srcloc !28
  invoke void @_ZN6icu_7714Transliterator10unregisterERKNS_13UnicodeStringE(ptr noundef nonnull align 8 dereferenceable(64) %3)
          to label %8 unwind label %12

8:                                                ; preds = %6
  call void @_ZN6icu_7713UnicodeStringD1Ev(ptr noundef nonnull align 8 dereferenceable(64) %3) #10
  call void @llvm.lifetime.end.p0(i64 64, ptr nonnull %3) #10
  ret void

9:                                                ; preds = %2
  %10 = landingpad { ptr, i32 }
          cleanup
  %11 = load ptr, ptr %4, align 8, !tbaa !25
  call void asm sideeffect "", "rm,~{memory},~{dirflag},~{fpsr},~{flags}"(ptr %11) #10, !srcloc !28
  br label %14

12:                                               ; preds = %6
  %13 = landingpad { ptr, i32 }
          cleanup
  call void @_ZN6icu_7713UnicodeStringD1Ev(ptr noundef nonnull align 8 dereferenceable(64) %3) #10
  br label %14

14:                                               ; preds = %12, %9
  %.pn = phi { ptr, i32 } [ %13, %12 ], [ %10, %9 ]
  call void @llvm.lifetime.end.p0(i64 64, ptr nonnull %3) #10
  resume { ptr, i32 } %.pn
}